; Function Attrs: mustprogress nounwind uwtable
define internal fastcc noundef zeroext i1 @_ZN5clang19RecursiveASTVisitorIN12_GLOBAL__N_110APICheckerEE20VisitOMPFilterClauseEPNS_15OMPFilterClauseE(ptr noundef nonnull align 1 dereferenceable(1) %0, ptr noundef nonnull readonly captures(none) %1) unnamed_addr #0 align 2 {
  %3 = getelementptr inbounds nuw i8, ptr %1, i64 24
  %4 = load ptr, ptr %3, align 8
  %5 = tail call fastcc noundef zeroext i1 @_ZN5clang19RecursiveASTVisitorIN12_GLOBAL__N_110APICheckerEE12TraverseStmtEPNS_4StmtEPN4llvm15SmallVectorImplINS6_14PointerIntPairIS5_Lj1EbNS6_21PointerLikeTypeTraitsIS5_EENS6_18PointerIntPairInfoIS5_Lj1ESA_EEEEEE(ptr noundef nonnull align 1 dereferenceable(1) %0, ptr noundef %4, ptr noundef null)
  br i1 %5, label %6, label %10

6:                                                ; preds = %2
  %7 = getelementptr inbounds nuw i8, ptr %1, i64 16
  %8 = load ptr, ptr %7, align 8
  %9 = tail call fastcc noundef zeroext i1 @_ZN5clang19RecursiveASTVisitorIN12_GLOBAL__N_110APICheckerEE12TraverseStmtEPNS_4StmtEPN4llvm15SmallVectorImplINS6_14PointerIntPairIS5_Lj1EbNS6_21PointerLikeTypeTraitsIS5_EENS6_18PointerIntPairInfoIS5_Lj1ESA_EEEEEE(ptr noundef nonnull align 1 dereferenceable(1) %0, ptr noundef %8, ptr noundef null)
  br label %10

10:                                               ; preds = %6, %2
  %.0 = phi i1 [ false, %2 ], [ %9, %6 ]
  ret i1 %.0
}